target datalayout = "e-m:e-p270:32:32-p271:32:32-p272:64:64-i64:64-i128:128-f80:128-n8:16:32:64-S128"
target triple = "x86_64-pc-linux-gnu"

%"class.clang::SourceLocation" = type { i32 }
%"class.clang::ParsedAttr" = type { %"class.clang::AttributeCommonInfo", ptr, %"class.clang::SourceLocation", %"class.clang::SourceLocation", i32, %"class.clang::SourceLocation", ptr, ptr }
%"class.clang::AttributeCommonInfo" = type { ptr, ptr, %"class.clang::SourceRange", %"class.clang::SourceLocation", i32 }
%"class.clang::SourceRange" = type { %"class.clang::SourceLocation", %"class.clang::SourceLocation" }

; Function Attrs: mustprogress nounwind uwtable
define linkonce_odr hidden noundef i64 @_ZN4llvm25trailing_objects_internal19TrailingObjectsImplILi8EN5clang10ParsedAttrENS_15TrailingObjectsIS3_JNS_12PointerUnionIJPNS2_4ExprEPNS2_13IdentifierLocEEEENS2_6detail16AvailabilityDataENSB_22TypeTagForDatatypeDataENS2_9OpaquePtrINS2_8QualTypeEEENSB_12PropertyDataEEEESH_JEE25additionalSizeToAllocImplEm(i64 noundef %0) #0 comdat align 2 {
  %2 = alloca i64, align 8
  store i64 %0, ptr %2, align 8
  %3 = load i64, ptr %2, align 8
  ret i64 %3
}

; Function Attrs: mustprogress nounwind uwtable
define linkonce_odr hidden noundef i64 @_ZN4llvm25trailing_objects_internal19TrailingObjectsImplILi8EN5clang10ParsedAttrENS_15TrailingObjectsIS3_JNS_12PointerUnionIJPNS2_4ExprEPNS2_13IdentifierLocEEEENS2_6detail16AvailabilityDataENSB_22TypeTagForDatatypeDataENS2_9OpaquePtrINS2_8QualTypeEEENSB_12PropertyDataEEEESG_JSH_EE25additionalSizeToAllocImplEmm(i64 noundef %0, i64 noundef %1) #0 comdat align 2 {
  %3 = alloca i64, align 8
  %4 = alloca i64, align 8
  store i64 %0, ptr %3, align 8
  store i64 %1, ptr %4, align 8
  %5 = load i64, ptr %3, align 8
  %6 = load i64, ptr %4, align 8
  %7 = mul i64 16, %6
  %8 = add i64 %5, %7
  %9 = call noundef i64 @_ZN4llvm25trailing_objects_internal19TrailingObjectsImplILi8EN5clang10ParsedAttrENS_15TrailingObjectsIS3_JNS_12PointerUnionIJPNS2_4ExprEPNS2_13IdentifierLocEEEENS2_6detail16AvailabilityDataENSB_22TypeTagForDatatypeDataENS2_9OpaquePtrINS2_8QualTypeEEENSB_12PropertyDataEEEESH_JEE25additionalSizeToAllocImplEm(i64 noundef %8)
  ret i64 %9
}

; Function Attrs: mustprogress nounwind uwtable
define linkonce_odr hidden noundef i64 @_ZN4llvm25trailing_objects_internal19TrailingObjectsImplILi8EN5clang10ParsedAttrENS_15TrailingObjectsIS3_JNS_12PointerUnionIJPNS2_4ExprEPNS2_13IdentifierLocEEEENS2_6detail16AvailabilityDataENSB_22TypeTagForDatatypeDataENS2_9OpaquePtrINS2_8QualTypeEEENSB_12PropertyDataEEEESD_JSG_SH_EE25additionalSizeToAllocImplEmmm(i64 noundef %0, i64 noundef %1, i64 noundef %2) #0 comdat align 2 {
  %4 = alloca i64, align 8
  %5 = alloca i64, align 8
  %6 = alloca i64, align 8
  store i64 %0, ptr %4, align 8
  store i64 %1, ptr %5, align 8
  store i64 %2, ptr %6, align 8
  %7 = load i64, ptr %4, align 8
  %8 = load i64, ptr %5, align 8
  %9 = mul i64 8, %8
  %10 = add i64 %7, %9
  %11 = load i64, ptr %6, align 8
  %12 = call noundef i64 @_ZN4llvm25trailing_objects_internal19TrailingObjectsImplILi8EN5clang10ParsedAttrENS_15TrailingObjectsIS3_JNS_12PointerUnionIJPNS2_4ExprEPNS2_13IdentifierLocEEEENS2_6detail16AvailabilityDataENSB_22TypeTagForDatatypeDataENS2_9OpaquePtrINS2_8QualTypeEEENSB_12PropertyDataEEEESG_JSH_EE25additionalSizeToAllocImplEmm(i64 noundef %10, i64 noundef %11)
  ret i64 %12
}

; Function Attrs: mustprogress nounwind uwtable
define linkonce_odr hidden noundef i64 @_ZN4llvm25trailing_objects_internal19TrailingObjectsImplILi8EN5clang10ParsedAttrENS_15TrailingObjectsIS3_JNS_12PointerUnionIJPNS2_4ExprEPNS2_13IdentifierLocEEEENS2_6detail16AvailabilityDataENSB_22TypeTagForDatatypeDataENS2_9OpaquePtrINS2_8QualTypeEEENSB_12PropertyDataEEEESC_JSD_SG_SH_EE25additionalSizeToAllocImplEmmmm(i64 noundef %0, i64 noundef %1, i64 noundef %2, i64 noundef %3) #0 comdat align 2 {
  %5 = alloca i64, align 8
  %6 = alloca i64, align 8
  %7 = alloca i64, align 8
  %8 = alloca i64, align 8
  store i64 %0, ptr %5, align 8
  store i64 %1, ptr %6, align 8
  store i64 %2, ptr %7, align 8
  store i64 %3, ptr %8, align 8
  %9 = load i64, ptr %5, align 8
  %10 = load i64, ptr %6, align 8
  %11 = mul i64 16, %10
  %12 = add i64 %9, %11
  %13 = load i64, ptr %7, align 8
  %14 = load i64, ptr %8, align 8
  %15 = call noundef i64 @_ZN4llvm25trailing_objects_internal19TrailingObjectsImplILi8EN5clang10ParsedAttrENS_15TrailingObjectsIS3_JNS_12PointerUnionIJPNS2_4ExprEPNS2_13IdentifierLocEEEENS2_6detail16AvailabilityDataENSB_22TypeTagForDatatypeDataENS2_9OpaquePtrINS2_8QualTypeEEENSB_12PropertyDataEEEESD_JSG_SH_EE25additionalSizeToAllocImplEmmm(i64 noundef %12, i64 noundef %13, i64 noundef %14)
  ret i64 %15
}

; Function Attrs: mustprogress nounwind uwtable
define linkonce_odr hidden noundef i64 @_ZN4llvm25trailing_objects_internal19TrailingObjectsImplILi8EN5clang10ParsedAttrENS_15TrailingObjectsIS3_JNS_12PointerUnionIJPNS2_4ExprEPNS2_13IdentifierLocEEEENS2_6detail16AvailabilityDataENSB_22TypeTagForDatatypeDataENS2_9OpaquePtrINS2_8QualTypeEEENSB_12PropertyDataEEEESA_JSC_SD_SG_SH_EE25additionalSizeToAllocImplEmmmmm(i64 noundef %0, i64 noundef %1, i64 noundef %2, i64 noundef %3, i64 noundef %4) #0 comdat align 2 {
  %6 = alloca i64, align 8
  %7 = alloca i64, align 8
  %8 = alloca i64, align 8
  %9 = alloca i64, align 8
  %10 = alloca i64, align 8
  store i64 %0, ptr %6, align 8
  store i64 %1, ptr %7, align 8
  store i64 %2, ptr %8, align 8
  store i64 %3, ptr %9, align 8
  store i64 %4, ptr %10, align 8
  %11 = load i64, ptr %6, align 8
  %12 = load i64, ptr %7, align 8
  %13 = mul i64 104, %12
  %14 = add i64 %11, %13
  %15 = load i64, ptr %8, align 8
  %16 = load i64, ptr %9, align 8
  %17 = load i64, ptr %10, align 8
  %18 = call noundef i64 @_ZN4llvm25trailing_objects_internal19TrailingObjectsImplILi8EN5clang10ParsedAttrENS_15TrailingObjectsIS3_JNS_12PointerUnionIJPNS2_4ExprEPNS2_13IdentifierLocEEEENS2_6detail16AvailabilityDataENSB_22TypeTagForDatatypeDataENS2_9OpaquePtrINS2_8QualTypeEEENSB_12PropertyDataEEEESC_JSD_SG_SH_EE25additionalSizeToAllocImplEmmmm(i64 noundef %14, i64 noundef %15, i64 noundef %16, i64 noundef %17)
  ret i64 %18
}

; Function Attrs: mustprogress nounwind uwtable
define linkonce_odr hidden noundef i64 @_ZN4llvm25trailing_objects_internal19TrailingObjectsImplILi8EN5clang10ParsedAttrENS_15TrailingObjectsIS3_JNS_12PointerUnionIJPNS2_4ExprEPNS2_13IdentifierLocEEEENS2_6detail16AvailabilityDataENSB_22TypeTagForDatatypeDataENS2_9OpaquePtrINS2_8QualTypeEEENSB_12PropertyDataEEEES3_JSA_SC_SD_SG_SH_EE25additionalSizeToAllocImplEmmmmmm(i64 noundef %0, i64 noundef %1, i64 noundef %2, i64 noundef %3, i64 noundef %4, i64 noundef %5) #0 comdat align 2 {
  %7 = alloca i64, align 8
  %8 = alloca i64, align 8
  %9 = alloca i64, align 8
  %10 = alloca i64, align 8
  %11 = alloca i64, align 8
  %12 = alloca i64, align 8
  store i64 %0, ptr %7, align 8
  store i64 %1, ptr %8, align 8
  store i64 %2, ptr %9, align 8
  store i64 %3, ptr %10, align 8
  store i64 %4, ptr %11, align 8
  store i64 %5, ptr %12, align 8
  %13 = load i64, ptr %7, align 8
  %14 = load i64, ptr %8, align 8
  %15 = mul i64 8, %14
  %16 = add i64 %13, %15
  %17 = load i64, ptr %9, align 8
  %18 = load i64, ptr %10, align 8
  %19 = load i64, ptr %11, align 8
  %20 = load i64, ptr %12, align 8
  %21 = call noundef i64 @_ZN4llvm25trailing_objects_internal19TrailingObjectsImplILi8EN5clang10ParsedAttrENS_15TrailingObjectsIS3_JNS_12PointerUnionIJPNS2_4ExprEPNS2_13IdentifierLocEEEENS2_6detail16AvailabilityDataENSB_22TypeTagForDatatypeDataENS2_9OpaquePtrINS2_8QualTypeEEENSB_12PropertyDataEEEESA_JSC_SD_SG_SH_EE25additionalSizeToAllocImplEmmmmm(i64 noundef %16, i64 noundef %17, i64 noundef %18, i64 noundef %19, i64 noundef %20)
  ret i64 %21
}

; Function Attrs: mustprogress nounwind uwtable
define linkonce_odr hidden noundef i64 @_ZN4llvm15TrailingObjectsIN5clang10ParsedAttrEJNS_12PointerUnionIJPNS1_4ExprEPNS1_13IdentifierLocEEEENS1_6detail16AvailabilityDataENS9_22TypeTagForDatatypeDataENS1_9OpaquePtrINS1_8QualTypeEEENS9_12PropertyDataEEE16totalSizeToAllocIJS8_SA_SB_SE_SF_EEENSt9enable_ifIXsr3stdE9is_same_vINSG_3FooIJS8_SA_SB_SE_SF_EEENSJ_IJDpT_EEEEEmE4typeEmmmmm(i64 noundef %0, i64 noundef %1, i64 noundef %2, i64 noundef %3, i64 noundef %4) #0 comdat align 2 {
  %6 = alloca i64, align 8
  %7 = alloca i64, align 8
  %8 = alloca i64, align 8
  %9 = alloca i64, align 8
  %10 = alloca i64, align 8
  store i64 %0, ptr %6, align 8
  store i64 %1, ptr %7, align 8
  store i64 %2, ptr %8, align 8
  store i64 %3, ptr %9, align 8
  store i64 %4, ptr %10, align 8
  %11 = load i64, ptr %6, align 8
  %12 = load i64, ptr %7, align 8
  %13 = load i64, ptr %8, align 8
  %14 = load i64, ptr %9, align 8
  %15 = load i64, ptr %10, align 8
  %16 = call noundef i64 @_ZN4llvm25trailing_objects_internal19TrailingObjectsImplILi8EN5clang10ParsedAttrENS_15TrailingObjectsIS3_JNS_12PointerUnionIJPNS2_4ExprEPNS2_13IdentifierLocEEEENS2_6detail16AvailabilityDataENSB_22TypeTagForDatatypeDataENS2_9OpaquePtrINS2_8QualTypeEEENSB_12PropertyDataEEEES3_JSA_SC_SD_SG_SH_EE25additionalSizeToAllocImplEmmmmmm(i64 noundef 0, i64 noundef %11, i64 noundef %12, i64 noundef %13, i64 noundef %14, i64 noundef %15)
  %17 = add i64 72, %16
  ret i64 %17
}

; Function Attrs: mustprogress nounwind uwtable
define dso_local noundef i64 @_ZNK5clang10ParsedAttr14allocated_sizeEv(ptr noundef nonnull align 8 dereferenceable(72) %0) #0 align 2 {
  %2 = alloca i64, align 8
  %3 = alloca ptr, align 8
  store ptr %0, ptr %3, align 8
  %4 = load ptr, ptr %3, align 8
  %5 = getelementptr inbounds nuw %"class.clang::ParsedAttr", ptr %4, i32 0, i32 4
  %6 = load i32, ptr %5, align 8
  %7 = lshr i32 %6, 18
  %8 = and i32 %7, 1
  %9 = icmp ne i32 %8, 0
  br i1 %9, label %10, label %11

10:                                               ; preds = %1
  store i64 184, ptr %2, align 8
  br label %42

11:                                               ; preds = %1
  %12 = getelementptr inbounds nuw %"class.clang::ParsedAttr", ptr %4, i32 0, i32 4
  %13 = load i32, ptr %12, align 8
  %14 = lshr i32 %13, 19
  %15 = and i32 %14, 1
  %16 = icmp ne i32 %15, 0
  br i1 %16, label %17, label %18

17:                                               ; preds = %11
  store i64 96, ptr %2, align 8
  br label %42

18:                                               ; preds = %11
  %19 = getelementptr inbounds nuw %"class.clang::ParsedAttr", ptr %4, i32 0, i32 4
  %20 = load i32, ptr %19, align 8
  %21 = lshr i32 %20, 20
  %22 = and i32 %21, 1
  %23 = icmp ne i32 %22, 0
  br i1 %23, label %24, label %25

24:                                               ; preds = %18
  store i64 88, ptr %2, align 8
  br label %42

25:                                               ; preds = %18
  %26 = getelementptr inbounds nuw %"class.clang::ParsedAttr", ptr %4, i32 0, i32 4
  %27 = load i32, ptr %26, align 8
  %28 = lshr i32 %27, 21
  %29 = and i32 %28, 1
  %30 = icmp ne i32 %29, 0
  br i1 %30, label %31, label %33

31:                                               ; preds = %25
  %32 = call noundef i64 @_ZN4llvm15TrailingObjectsIN5clang10ParsedAttrEJNS_12PointerUnionIJPNS1_4ExprEPNS1_13IdentifierLocEEEENS1_6detail16AvailabilityDataENS9_22TypeTagForDatatypeDataENS1_9OpaquePtrINS1_8QualTypeEEENS9_12PropertyDataEEE16totalSizeToAllocIJS8_SA_SB_SE_SF_EEENSt9enable_ifIXsr3stdE9is_same_vINSG_3FooIJS8_SA_SB_SE_SF_EEENSJ_IJDpT_EEEEEmE4typeEmmmmm(i64 noundef 0, i64 noundef 0, i64 noundef 0, i64 noundef 1, i64 noundef 0)
  store i64 %32, ptr %2, align 8
  br label %42

33:                                               ; preds = %25
  br label %34

34:                                               ; preds = %33
  br label %35

35:                                               ; preds = %34
  br label %36

36:                                               ; preds = %35
  %37 = getelementptr inbounds nuw %"class.clang::ParsedAttr", ptr %4, i32 0, i32 4
  %38 = load i32, ptr %37, align 8
  %39 = and i32 %38, 65535
  %40 = zext i32 %39 to i64
  %41 = call noundef i64 @_ZN4llvm15TrailingObjectsIN5clang10ParsedAttrEJNS_12PointerUnionIJPNS1_4ExprEPNS1_13IdentifierLocEEEENS1_6detail16AvailabilityDataENS9_22TypeTagForDatatypeDataENS1_9OpaquePtrINS1_8QualTypeEEENS9_12PropertyDataEEE16totalSizeToAllocIJS8_SA_SB_SE_SF_EEENSt9enable_ifIXsr3stdE9is_same_vINSG_3FooIJS8_SA_SB_SE_SF_EEENSJ_IJDpT_EEEEEmE4typeEmmmmm(i64 noundef %40, i64 noundef 0, i64 noundef 0, i64 noundef 0, i64 noundef 0)
  store i64 %41, ptr %2, align 8
  br label %42

42:                                               ; preds = %36, %31, %24, %17, %10
  %43 = load i64, ptr %2, align 8
  ret i64 %43
}