; Function Attrs: mustprogress nofree norecurse nosync nounwind willreturn memory(argmem: read) uwtable
define dso_local noundef range(i64 72, 524353) i64 @_ZNK5clang10ParsedAttr14allocated_sizeEv(ptr nocapture noundef nonnull readonly align 8 dereferenceable(72) %0) local_unnamed_addr #2 align 2 {
  %2 = getelementptr inbounds nuw i8, ptr %0, i64 48
  %3 = load i32, ptr %2, align 8
  %4 = and i32 %3, 262144
  %.not = icmp eq i32 %4, 0
  br i1 %.not, label %5, label %15

5:                                                ; preds = %1
  %6 = and i32 %3, 524288
  %.not1 = icmp eq i32 %6, 0
  br i1 %.not1, label %7, label %15

7:                                                ; preds = %5
  %8 = and i32 %3, 1048576
  %.not2 = icmp eq i32 %8, 0
  br i1 %.not2, label %9, label %15

9:                                                ; preds = %7
  %10 = and i32 %3, 2097152
  %.not3 = icmp eq i32 %10, 0
  br i1 %.not3, label %11, label %15

11:                                               ; preds = %9
  %12 = shl i32 %3, 3
  %13 = and i32 %12, 524280
  %narrow = add nuw nsw i32 %13, 72
  %14 = zext nneg i32 %narrow to i64
  br label %15

15:                                               ; preds = %9, %7, %5, %1, %11
  %.0 = phi i64 [ %14, %11 ], [ 184, %1 ], [ 96, %5 ], [ 88, %7 ], [ 80, %9 ]
  ret i64 %.0
}